target datalayout = "e-m:e-p270:32:32-p271:32:32-p272:64:64-i64:64-i128:128-f80:128-n8:16:32:64-S128"
target triple = "x86_64-pc-linux-gnu"

%struct._zend_alloc_globals = type { ptr }
%struct._zend_mm_heap = type { i32, ptr, i64, i64, [30 x ptr], i64, i64, i64, i32, ptr, ptr, ptr, i32, i32, i32, double, i32, i32, %struct.anon, ptr }
%struct.anon = type { ptr, ptr, ptr }
%struct._zend_mm_chunk = type { ptr, ptr, ptr, i32, i32, i32, [28 x i8], %struct._zend_mm_heap, [8 x i64], [512 x i32] }
%struct._zend_mm_free_slot = type { ptr }

@bin_elements = internal constant [30 x i32] [i32 512, i32 256, i32 170, i32 128, i32 102, i32 85, i32 73, i32 64, i32 51, i32 42, i32 36, i32 32, i32 25, i32 21, i32 18, i32 16, i32 64, i32 32, i32 9, i32 8, i32 32, i32 16, i32 9, i32 8, i32 16, i32 8, i32 16, i32 8, i32 8, i32 4], align 16
@bin_pages = internal constant [30 x i32] [i32 1, i32 1, i32 1, i32 1, i32 1, i32 1, i32 1, i32 1, i32 1, i32 1, i32 1, i32 1, i32 1, i32 1, i32 1, i32 1, i32 5, i32 3, i32 1, i32 1, i32 5, i32 3, i32 2, i32 2, i32 5, i32 3, i32 7, i32 4, i32 5, i32 3], align 16
@alloc_globals = internal global %struct._zend_alloc_globals zeroinitializer, align 8

; Function Attrs: nounwind uwtable
define internal ptr @zend_mm_alloc_small_slow(ptr noundef %0, i32 noundef %1) #0 {
  %3 = alloca ptr, align 8
  %4 = alloca ptr, align 8
  %5 = alloca i32, align 4
  %6 = alloca ptr, align 8
  %7 = alloca i32, align 4
  %8 = alloca ptr, align 8
  %9 = alloca ptr, align 8
  %10 = alloca ptr, align 8
  %11 = alloca i32, align 4
  store ptr %0, ptr %4, align 8
  store i32 %1, ptr %5, align 4
  %12 = load ptr, ptr %4, align 8
  %13 = load i32, ptr %5, align 4
  %14 = zext i32 %13 to i64
  %15 = getelementptr inbounds [30 x i32], ptr @bin_pages, i64 0, i64 %14
  %16 = load i32, ptr %15, align 4
  %17 = call ptr @zend_mm_alloc_pages(ptr noundef %12, i32 noundef %16)
  store ptr %17, ptr %8, align 8
  %18 = load ptr, ptr %8, align 8
  %19 = icmp eq ptr %18, null
  %20 = xor i1 %19, true
  %21 = xor i1 %20, true
  %22 = zext i1 %21 to i32
  %23 = sext i32 %22 to i64
  %24 = icmp ne i64 %23, 0
  br i1 %24, label %25, label %26

25:                                               ; preds = %2
  store ptr null, ptr %3, align 8
  br label %125

26:                                               ; preds = %2
  %27 = load ptr, ptr %8, align 8
  %28 = ptrtoint ptr %27 to i64
  %29 = and i64 %28, -2097152
  %30 = inttoptr i64 %29 to ptr
  store ptr %30, ptr %6, align 8
  %31 = load ptr, ptr %8, align 8
  %32 = ptrtoint ptr %31 to i64
  %33 = and i64 %32, 2097151
  %34 = udiv i64 %33, 4096
  %35 = trunc i64 %34 to i32
  store i32 %35, ptr %7, align 4
  %36 = load i32, ptr %5, align 4
  %37 = shl i32 %36, 0
  %38 = or i32 -2147483648, %37
  %39 = load ptr, ptr %6, align 8
  %40 = getelementptr inbounds %struct._zend_mm_chunk, ptr %39, i32 0, i32 9
  %41 = load i32, ptr %7, align 4
  %42 = sext i32 %41 to i64
  %43 = getelementptr inbounds [512 x i32], ptr %40, i64 0, i64 %42
  store i32 %38, ptr %43, align 4
  %44 = load i32, ptr %5, align 4
  %45 = zext i32 %44 to i64
  %46 = getelementptr inbounds [30 x i32], ptr @bin_pages, i64 0, i64 %45
  %47 = load i32, ptr %46, align 4
  %48 = icmp ugt i32 %47, 1
  br i1 %48, label %49, label %74

49:                                               ; preds = %26
  store i32 1, ptr %11, align 4
  br label %50

50:                                               ; preds = %66, %49
  %51 = load i32, ptr %5, align 4
  %52 = shl i32 %51, 0
  %53 = or i32 -1073741824, %52
  %54 = load i32, ptr %11, align 4
  %55 = shl i32 %54, 16
  %56 = or i32 %53, %55
  %57 = load ptr, ptr %6, align 8
  %58 = getelementptr inbounds %struct._zend_mm_chunk, ptr %57, i32 0, i32 9
  %59 = load i32, ptr %7, align 4
  %60 = load i32, ptr %11, align 4
  %61 = add i32 %59, %60
  %62 = zext i32 %61 to i64
  %63 = getelementptr inbounds [512 x i32], ptr %58, i64 0, i64 %62
  store i32 %56, ptr %63, align 4
  %64 = load i32, ptr %11, align 4
  %65 = add i32 %64, 1
  store i32 %65, ptr %11, align 4
  br label %66

66:                                               ; preds = %50
  %67 = load i32, ptr %11, align 4
  %68 = load i32, ptr %5, align 4
  %69 = zext i32 %68 to i64
  %70 = getelementptr inbounds [30 x i32], ptr @bin_pages, i64 0, i64 %69
  %71 = load i32, ptr %70, align 4
  %72 = icmp ult i32 %67, %71
  br i1 %72, label %50, label %73

73:                                               ; preds = %66
  br label %74

74:                                               ; preds = %73, %26
  %75 = load ptr, ptr %8, align 8
  %76 = load i32, ptr %5, align 4
  %77 = zext i32 %76 to i64
  %78 = getelementptr inbounds [30 x i32], ptr @bin_data_size, i64 0, i64 %77
  %79 = load i32, ptr %78, align 4
  %80 = load i32, ptr %5, align 4
  %81 = zext i32 %80 to i64
  %82 = getelementptr inbounds [30 x i32], ptr @bin_elements, i64 0, i64 %81
  %83 = load i32, ptr %82, align 4
  %84 = sub i32 %83, 1
  %85 = mul i32 %79, %84
  %86 = zext i32 %85 to i64
  %87 = getelementptr inbounds i8, ptr %75, i64 %86
  store ptr %87, ptr %10, align 8
  %88 = load ptr, ptr %8, align 8
  %89 = load i32, ptr %5, align 4
  %90 = zext i32 %89 to i64
  %91 = getelementptr inbounds [30 x i32], ptr @bin_data_size, i64 0, i64 %90
  %92 = load i32, ptr %91, align 4
  %93 = zext i32 %92 to i64
  %94 = getelementptr inbounds i8, ptr %88, i64 %93
  store ptr %94, ptr %9, align 8
  %95 = load ptr, ptr %4, align 8
  %96 = getelementptr inbounds %struct._zend_mm_heap, ptr %95, i32 0, i32 4
  %97 = load i32, ptr %5, align 4
  %98 = zext i32 %97 to i64
  %99 = getelementptr inbounds [30 x ptr], ptr %96, i64 0, i64 %98
  store ptr %94, ptr %99, align 8
  br label %100

100:                                              ; preds = %117, %74
  %101 = load ptr, ptr %9, align 8
  %102 = load i32, ptr %5, align 4
  %103 = zext i32 %102 to i64
  %104 = getelementptr inbounds [30 x i32], ptr @bin_data_size, i64 0, i64 %103
  %105 = load i32, ptr %104, align 4
  %106 = zext i32 %105 to i64
  %107 = getelementptr inbounds i8, ptr %101, i64 %106
  %108 = load ptr, ptr %9, align 8
  %109 = getelementptr inbounds %struct._zend_mm_free_slot, ptr %108, i32 0, i32 0
  store ptr %107, ptr %109, align 8
  %110 = load ptr, ptr %9, align 8
  %111 = load i32, ptr %5, align 4
  %112 = zext i32 %111 to i64
  %113 = getelementptr inbounds [30 x i32], ptr @bin_data_size, i64 0, i64 %112
  %114 = load i32, ptr %113, align 4
  %115 = zext i32 %114 to i64
  %116 = getelementptr inbounds i8, ptr %110, i64 %115
  store ptr %116, ptr %9, align 8
  br label %117

117:                                              ; preds = %100
  %118 = load ptr, ptr %9, align 8
  %119 = load ptr, ptr %10, align 8
  %120 = icmp ne ptr %118, %119
  br i1 %120, label %100, label %121

121:                                              ; preds = %117
  %122 = load ptr, ptr %9, align 8
  %123 = getelementptr inbounds %struct._zend_mm_free_slot, ptr %122, i32 0, i32 0
  store ptr null, ptr %123, align 8
  %124 = load ptr, ptr %8, align 8
  store ptr %124, ptr %3, align 8
  br label %125

125:                                              ; preds = %121, %25
  %126 = load ptr, ptr %3, align 8
  ret ptr %126
}

; Function Attrs: nounwind uwtable
define noalias ptr @_emalloc_448() #0 {
  %1 = alloca ptr, align 8
  %2 = alloca ptr, align 8
  %3 = alloca i32, align 4
  %4 = alloca i64, align 8
  %5 = alloca i64, align 8
  %6 = alloca ptr, align 8
  %7 = alloca ptr, align 8
  br label %8

8:                                                ; preds = %0
  %9 = load ptr, ptr @alloc_globals, align 8
  %10 = getelementptr inbounds %struct._zend_mm_heap, ptr %9, i32 0, i32 0
  %11 = load i32, ptr %10, align 8
  %12 = icmp ne i32 %11, 0
  %13 = xor i1 %12, true
  %14 = xor i1 %13, true
  %15 = zext i1 %14 to i32
  %16 = sext i32 %15 to i64
  %17 = icmp ne i64 %16, 0
  br i1 %17, label %18, label %24

18:                                               ; preds = %8
  %19 = load ptr, ptr @alloc_globals, align 8
  %20 = getelementptr inbounds %struct._zend_mm_heap, ptr %19, i32 0, i32 18
  %21 = getelementptr inbounds %struct.anon, ptr %20, i32 0, i32 0
  %22 = load ptr, ptr %21, align 8
  %23 = call ptr %22(i64 noundef 448)
  store ptr %23, ptr %7, align 8
  br label %83

24:                                               ; preds = %8
  br label %25

25:                                               ; preds = %24
  %26 = load ptr, ptr @alloc_globals, align 8
  store ptr %26, ptr %2, align 8
  store i32 18, ptr %3, align 4
  %27 = load ptr, ptr %2, align 8
  %28 = getelementptr inbounds %struct._zend_mm_heap, ptr %27, i32 0, i32 2
  %29 = load i64, ptr %28, align 8
  %30 = load i32, ptr %3, align 4
  %31 = sext i32 %30 to i64
  %32 = getelementptr inbounds [30 x i32], ptr @bin_data_size, i64 0, i64 %31
  %33 = load i32, ptr %32, align 4
  %34 = zext i32 %33 to i64
  %35 = add i64 %29, %34
  store i64 %35, ptr %4, align 8
  %36 = load ptr, ptr %2, align 8
  %37 = getelementptr inbounds %struct._zend_mm_heap, ptr %36, i32 0, i32 3
  %38 = load i64, ptr %37, align 8
  %39 = load i64, ptr %4, align 8
  %40 = icmp ugt i64 %38, %39
  br i1 %40, label %41, label %45

41:                                               ; preds = %25
  %42 = load ptr, ptr %2, align 8
  %43 = getelementptr inbounds %struct._zend_mm_heap, ptr %42, i32 0, i32 3
  %44 = load i64, ptr %43, align 8
  br label %47

45:                                               ; preds = %25
  %46 = load i64, ptr %4, align 8
  br label %47

47:                                               ; preds = %45, %41
  %48 = phi i64 [ %44, %41 ], [ %46, %45 ]
  store i64 %48, ptr %5, align 8
  %49 = load i64, ptr %4, align 8
  %50 = load ptr, ptr %2, align 8
  %51 = getelementptr inbounds %struct._zend_mm_heap, ptr %50, i32 0, i32 2
  store i64 %49, ptr %51, align 8
  %52 = load i64, ptr %5, align 8
  %53 = load ptr, ptr %2, align 8
  %54 = getelementptr inbounds %struct._zend_mm_heap, ptr %53, i32 0, i32 3
  store i64 %52, ptr %54, align 8
  %55 = load ptr, ptr %2, align 8
  %56 = getelementptr inbounds %struct._zend_mm_heap, ptr %55, i32 0, i32 4
  %57 = load i32, ptr %3, align 4
  %58 = sext i32 %57 to i64
  %59 = getelementptr inbounds [30 x ptr], ptr %56, i64 0, i64 %58
  %60 = load ptr, ptr %59, align 8
  %61 = icmp ne ptr %60, null
  br i1 %61, label %62, label %77

62:                                               ; preds = %47
  %63 = load ptr, ptr %2, align 8
  %64 = getelementptr inbounds %struct._zend_mm_heap, ptr %63, i32 0, i32 4
  %65 = load i32, ptr %3, align 4
  %66 = sext i32 %65 to i64
  %67 = getelementptr inbounds [30 x ptr], ptr %64, i64 0, i64 %66
  %68 = load ptr, ptr %67, align 8
  store ptr %68, ptr %6, align 8
  %69 = load ptr, ptr %6, align 8
  %70 = load ptr, ptr %69, align 8
  %71 = load ptr, ptr %2, align 8
  %72 = getelementptr inbounds %struct._zend_mm_heap, ptr %71, i32 0, i32 4
  %73 = load i32, ptr %3, align 4
  %74 = sext i32 %73 to i64
  %75 = getelementptr inbounds [30 x ptr], ptr %72, i64 0, i64 %74
  store ptr %70, ptr %75, align 8
  %76 = load ptr, ptr %6, align 8
  store ptr %76, ptr %1, align 8
  br label %81

77:                                               ; preds = %47
  %78 = load ptr, ptr %2, align 8
  %79 = load i32, ptr %3, align 4
  %80 = call ptr @zend_mm_alloc_small_slow(ptr noundef %78, i32 noundef %79)
  store ptr %80, ptr %1, align 8
  br label %81

81:                                               ; preds = %77, %62
  %82 = load ptr, ptr %1, align 8
  store ptr %82, ptr %7, align 8
  br label %83

83:                                               ; preds = %81, %18
  %84 = load ptr, ptr %7, align 8
  ret ptr %84
}